target datalayout = "e-m:e-p270:32:32-p271:32:32-p272:64:64-i64:64-i128:128-f80:128-n8:16:32:64-S128"
target triple = "x86_64-pc-linux-gnu"

%struct._object = type { %union.anon, ptr }
%union.anon = type { i64 }
%struct.anon = type { i32, i32 }
%struct._lsprof_state = type { ptr, ptr, ptr }
%struct.statscollector_t = type { ptr, ptr, double, ptr }
%struct._ProfilerEntry = type { %struct.rotating_node_s, ptr, i64, i64, i64, i64, i64, ptr }
%struct.rotating_node_s = type { ptr, ptr, ptr }
%struct._ProfilerSubEntry = type { %struct.rotating_node_s, i64, i64, i64, i64, i64 }

@.str.18 = private unnamed_addr constant [10 x i8] c"((Olldd))\00", align 1

; Function Attrs: alwaysinline nounwind uwtable
define internal i32 @_Py_IsImmortal(ptr noundef %0) #2 {
  %2 = alloca ptr, align 8
  store ptr %0, ptr %2, align 8, !tbaa !3
  %3 = load ptr, ptr %2, align 8, !tbaa !3
  %4 = getelementptr inbounds nuw %struct._object, ptr %3, i32 0, i32 0
  %5 = getelementptr inbounds nuw %struct.anon, ptr %4, i32 0, i32 0
  %6 = load i32, ptr %5, align 8, !tbaa !21
  %7 = icmp slt i32 %6, 0
  %8 = zext i1 %7 to i32
  ret i32 %8
}

; Function Attrs: alwaysinline nounwind uwtable
define internal void @Py_DECREF(ptr noundef %0) #2 {
  %2 = alloca ptr, align 8
  store ptr %0, ptr %2, align 8, !tbaa !3
  %3 = load ptr, ptr %2, align 8, !tbaa !3
  %4 = call i32 @_Py_IsImmortal(ptr noundef %3)
  %5 = icmp ne i32 %4, 0
  br i1 %5, label %6, label %7

6:                                                ; preds = %1
  br label %16

7:                                                ; preds = %1
  %8 = load ptr, ptr %2, align 8, !tbaa !3
  %9 = getelementptr inbounds nuw %struct._object, ptr %8, i32 0, i32 0
  %10 = getelementptr inbounds nuw %struct.anon, ptr %9, i32 0, i32 0
  %11 = load i32, ptr %10, align 8, !tbaa !21
  %12 = add i32 %11, -1
  store i32 %12, ptr %10, align 8, !tbaa !21
  %13 = icmp eq i32 %12, 0
  br i1 %13, label %14, label %16

14:                                               ; preds = %7
  %15 = load ptr, ptr %2, align 8, !tbaa !3
  call void @_Py_Dealloc(ptr noundef %15)
  br label %16

16:                                               ; preds = %6, %14, %7
  ret void
}

; Function Attrs: nounwind uwtable
define internal i32 @statsForSubEntry(ptr noundef %0, ptr noundef %1) #0 {
  %3 = alloca i32, align 4
  %4 = alloca ptr, align 8
  %5 = alloca ptr, align 8
  %6 = alloca ptr, align 8
  %7 = alloca ptr, align 8
  %8 = alloca ptr, align 8
  %9 = alloca i32, align 4
  %10 = alloca ptr, align 8
  %11 = alloca i32, align 4
  store ptr %0, ptr %4, align 8, !tbaa !65
  store ptr %1, ptr %5, align 8, !tbaa !24
  call void @llvm.lifetime.start.p0(i64 8, ptr %6) #6
  %12 = load ptr, ptr %4, align 8, !tbaa !65
  store ptr %12, ptr %6, align 8, !tbaa !77
  call void @llvm.lifetime.start.p0(i64 8, ptr %7) #6
  %13 = load ptr, ptr %5, align 8, !tbaa !24
  store ptr %13, ptr %7, align 8, !tbaa !24
  call void @llvm.lifetime.start.p0(i64 8, ptr %8) #6
  %14 = load ptr, ptr %6, align 8, !tbaa !77
  %15 = getelementptr inbounds nuw %struct._ProfilerSubEntry, ptr %14, i32 0, i32 0
  %16 = getelementptr inbounds nuw %struct.rotating_node_s, ptr %15, i32 0, i32 0
  %17 = load ptr, ptr %16, align 8, !tbaa !79
  store ptr %17, ptr %8, align 8, !tbaa !66
  call void @llvm.lifetime.start.p0(i64 4, ptr %9) #6
  call void @llvm.lifetime.start.p0(i64 8, ptr %10) #6
  %18 = load ptr, ptr %7, align 8, !tbaa !24
  %19 = getelementptr inbounds nuw %struct.statscollector_t, ptr %18, i32 0, i32 3
  %20 = load ptr, ptr %19, align 8, !tbaa !44
  %21 = getelementptr inbounds nuw %struct._lsprof_state, ptr %20, i32 0, i32 2
  %22 = load ptr, ptr %21, align 8, !tbaa !28
  %23 = load ptr, ptr %8, align 8, !tbaa !66
  %24 = getelementptr inbounds nuw %struct._ProfilerEntry, ptr %23, i32 0, i32 1
  %25 = load ptr, ptr %24, align 8, !tbaa !73
  %26 = load ptr, ptr %6, align 8, !tbaa !77
  %27 = getelementptr inbounds nuw %struct._ProfilerSubEntry, ptr %26, i32 0, i32 3
  %28 = load i64, ptr %27, align 8, !tbaa !81
  %29 = load ptr, ptr %6, align 8, !tbaa !77
  %30 = getelementptr inbounds nuw %struct._ProfilerSubEntry, ptr %29, i32 0, i32 4
  %31 = load i64, ptr %30, align 8, !tbaa !82
  %32 = load ptr, ptr %7, align 8, !tbaa !24
  %33 = getelementptr inbounds nuw %struct.statscollector_t, ptr %32, i32 0, i32 2
  %34 = load double, ptr %33, align 8, !tbaa !47
  %35 = load ptr, ptr %6, align 8, !tbaa !77
  %36 = getelementptr inbounds nuw %struct._ProfilerSubEntry, ptr %35, i32 0, i32 1
  %37 = load i64, ptr %36, align 8, !tbaa !83
  %38 = sitofp i64 %37 to double
  %39 = fmul double %34, %38
  %40 = load ptr, ptr %7, align 8, !tbaa !24
  %41 = getelementptr inbounds nuw %struct.statscollector_t, ptr %40, i32 0, i32 2
  %42 = load double, ptr %41, align 8, !tbaa !47
  %43 = load ptr, ptr %6, align 8, !tbaa !77
  %44 = getelementptr inbounds nuw %struct._ProfilerSubEntry, ptr %43, i32 0, i32 2
  %45 = load i64, ptr %44, align 8, !tbaa !84
  %46 = sitofp i64 %45 to double
  %47 = fmul double %42, %46
  %48 = call ptr (ptr, ptr, ...) @PyObject_CallFunction(ptr noundef %22, ptr noundef @.str.18, ptr noundef %25, i64 noundef %28, i64 noundef %31, double noundef %39, double noundef %47)
  store ptr %48, ptr %10, align 8, !tbaa !3
  %49 = load ptr, ptr %10, align 8, !tbaa !3
  %50 = icmp eq ptr %49, null
  br i1 %50, label %51, label %52

51:                                               ; preds = %2
  store i32 -1, ptr %3, align 4
  store i32 1, ptr %11, align 4
  br label %60

52:                                               ; preds = %2
  %53 = load ptr, ptr %7, align 8, !tbaa !24
  %54 = getelementptr inbounds nuw %struct.statscollector_t, ptr %53, i32 0, i32 1
  %55 = load ptr, ptr %54, align 8, !tbaa !72
  %56 = load ptr, ptr %10, align 8, !tbaa !3
  %57 = call i32 @PyList_Append(ptr noundef %55, ptr noundef %56)
  store i32 %57, ptr %9, align 4, !tbaa !22
  %58 = load ptr, ptr %10, align 8, !tbaa !3
  call void @Py_DECREF(ptr noundef %58)
  %59 = load i32, ptr %9, align 4, !tbaa !22
  store i32 %59, ptr %3, align 4
  store i32 1, ptr %11, align 4
  br label %60

60:                                               ; preds = %52, %51
  call void @llvm.lifetime.end.p0(i64 8, ptr %10) #6
  call void @llvm.lifetime.end.p0(i64 4, ptr %9) #6
  call void @llvm.lifetime.end.p0(i64 8, ptr %8) #6
  call void @llvm.lifetime.end.p0(i64 8, ptr %7) #6
  call void @llvm.lifetime.end.p0(i64 8, ptr %6) #6
  %61 = load i32, ptr %3, align 4
  ret i32 %61
}