; Function Attrs: nounwind uwtable
define internal i32 @statsForSubEntry(ptr noundef readonly captures(none) %0, ptr noundef readonly captures(none) %1) #0 {
  %3 = load ptr, ptr %0, align 8, !tbaa !85
  %4 = getelementptr inbounds nuw i8, ptr %1, i64 24
  %5 = load ptr, ptr %4, align 8, !tbaa !65
  %6 = getelementptr inbounds nuw i8, ptr %5, i64 16
  %7 = load ptr, ptr %6, align 8, !tbaa !24
  %8 = getelementptr inbounds nuw i8, ptr %3, i64 24
  %9 = load ptr, ptr %8, align 8, !tbaa !81
  %10 = getelementptr inbounds nuw i8, ptr %0, i64 40
  %11 = load i64, ptr %10, align 8, !tbaa !87
  %12 = getelementptr inbounds nuw i8, ptr %0, i64 48
  %13 = load i64, ptr %12, align 8, !tbaa !88
  %14 = getelementptr inbounds nuw i8, ptr %1, i64 16
  %15 = load double, ptr %14, align 8, !tbaa !67
  %16 = getelementptr inbounds nuw i8, ptr %0, i64 24
  %17 = load i64, ptr %16, align 8, !tbaa !89
  %18 = sitofp i64 %17 to double
  %19 = fmul double %15, %18
  %20 = getelementptr inbounds nuw i8, ptr %0, i64 32
  %21 = load i64, ptr %20, align 8, !tbaa !90
  %22 = sitofp i64 %21 to double
  %23 = fmul double %15, %22
  %24 = tail call ptr (ptr, ptr, ...) @PyObject_CallFunction(ptr noundef %7, ptr noundef nonnull @.str.18, ptr noundef %9, i64 noundef %11, i64 noundef %13, double noundef %19, double noundef %23) #5
  %25 = icmp eq ptr %24, null
  br i1 %25, label %Py_DECREF.exit, label %26

26:                                               ; preds = %2
  %27 = getelementptr inbounds nuw i8, ptr %1, i64 8
  %28 = load ptr, ptr %27, align 8, !tbaa !80
  %29 = tail call i32 @PyList_Append(ptr noundef %28, ptr noundef nonnull %24) #5
  %30 = load i32, ptr %24, align 8, !tbaa !9
  %.not.i = icmp sgt i32 %30, -1
  br i1 %.not.i, label %31, label %Py_DECREF.exit

31:                                               ; preds = %26
  %32 = add nsw i32 %30, -1
  store i32 %32, ptr %24, align 8, !tbaa !9
  %33 = icmp eq i32 %32, 0
  br i1 %33, label %34, label %Py_DECREF.exit

34:                                               ; preds = %31
  tail call void @_Py_Dealloc(ptr noundef nonnull %24) #5
  br label %Py_DECREF.exit

Py_DECREF.exit:                                   ; preds = %34, %31, %26, %2
  %.0 = phi i32 [ -1, %2 ], [ %29, %26 ], [ %29, %31 ], [ %29, %34 ]
  ret i32 %.0
}